target datalayout = "e-m:e-p270:32:32-p271:32:32-p272:64:64-i64:64-i128:128-f80:128-n8:16:32:64-S128"
target triple = "x86_64-pc-linux-gnu"

%struct.AVFilterContext = type { ptr, ptr, ptr, ptr, ptr, i32, ptr, ptr, i32, ptr, ptr, i32, i32, ptr, ptr, ptr, ptr, i32, ptr, i32, i32 }
%struct.ATiltContext = type { ptr, double, double, double, double, i32, [30 x %struct.Coeffs], ptr, ptr }
%struct.Coeffs = type { double, double, double, double }
%struct.ThreadData = type { ptr, ptr }
%struct.AVChannelLayout = type { i32, i32, %union.anon.1, ptr }
%union.anon.1 = type { i64 }
%struct.AVRational = type { i32, i32 }
%struct.AVFrame = type { [8 x ptr], [8 x i32], ptr, i32, i32, i32, i32, i32, %struct.AVRational, i64, i64, %struct.AVRational, i32, ptr, i32, i32, [8 x ptr], ptr, i32, ptr, i32, i32, i32, i32, i32, i32, i32, i64, ptr, i32, ptr, ptr, i64, i64, i64, i64, ptr, %struct.AVChannelLayout, i64 }

; Function Attrs: nounwind uwtable
define internal i32 @filter_channels_dblp(ptr noundef %0, ptr noundef %1, i32 noundef %2, i32 noundef %3) #1 {
  %5 = alloca ptr, align 8
  %6 = alloca ptr, align 8
  %7 = alloca i32, align 4
  %8 = alloca i32, align 4
  %9 = alloca ptr, align 8
  %10 = alloca ptr, align 8
  %11 = alloca ptr, align 8
  %12 = alloca ptr, align 8
  %13 = alloca i32, align 4
  %14 = alloca i32, align 4
  %15 = alloca double, align 8
  %16 = alloca i32, align 4
  %17 = alloca i32, align 4
  %18 = alloca ptr, align 8
  %19 = alloca ptr, align 8
  %20 = alloca i32, align 4
  %21 = alloca ptr, align 8
  %22 = alloca double, align 8
  %23 = alloca double, align 8
  %24 = alloca double, align 8
  %25 = alloca double, align 8
  %26 = alloca ptr, align 8
  %27 = alloca i32, align 4
  %28 = alloca double, align 8
  %29 = alloca double, align 8
  store ptr %0, ptr %5, align 8, !tbaa !4
  store ptr %1, ptr %6, align 8, !tbaa !54
  store i32 %2, ptr %7, align 4, !tbaa !25
  store i32 %3, ptr %8, align 4, !tbaa !25
  call void @llvm.lifetime.start.p0(i64 8, ptr %9) #6
  %30 = load ptr, ptr %5, align 8, !tbaa !4
  %31 = getelementptr inbounds nuw %struct.AVFilterContext, ptr %30, i32 0, i32 9
  %32 = load ptr, ptr %31, align 8, !tbaa !9
  store ptr %32, ptr %9, align 8, !tbaa !22
  call void @llvm.lifetime.start.p0(i64 8, ptr %10) #6
  %33 = load ptr, ptr %6, align 8, !tbaa !54
  store ptr %33, ptr %10, align 8, !tbaa !55
  call void @llvm.lifetime.start.p0(i64 8, ptr %11) #6
  %34 = load ptr, ptr %10, align 8, !tbaa !55
  %35 = getelementptr inbounds nuw %struct.ThreadData, ptr %34, i32 0, i32 1
  %36 = load ptr, ptr %35, align 8, !tbaa !47
  store ptr %36, ptr %11, align 8, !tbaa !28
  call void @llvm.lifetime.start.p0(i64 8, ptr %12) #6
  %37 = load ptr, ptr %10, align 8, !tbaa !55
  %38 = getelementptr inbounds nuw %struct.ThreadData, ptr %37, i32 0, i32 0
  %39 = load ptr, ptr %38, align 8, !tbaa !45
  store ptr %39, ptr %12, align 8, !tbaa !28
  call void @llvm.lifetime.start.p0(i64 4, ptr %13) #6
  %40 = load ptr, ptr %12, align 8, !tbaa !28
  %41 = getelementptr inbounds nuw %struct.AVFrame, ptr %40, i32 0, i32 37
  %42 = getelementptr inbounds nuw %struct.AVChannelLayout, ptr %41, i32 0, i32 1
  %43 = load i32, ptr %42, align 4, !tbaa !57
  %44 = load i32, ptr %7, align 4, !tbaa !25
  %45 = mul nsw i32 %43, %44
  %46 = load i32, ptr %8, align 4, !tbaa !25
  %47 = sdiv i32 %45, %46
  store i32 %47, ptr %13, align 4, !tbaa !25
  call void @llvm.lifetime.start.p0(i64 4, ptr %14) #6
  %48 = load ptr, ptr %12, align 8, !tbaa !28
  %49 = getelementptr inbounds nuw %struct.AVFrame, ptr %48, i32 0, i32 37
  %50 = getelementptr inbounds nuw %struct.AVChannelLayout, ptr %49, i32 0, i32 1
  %51 = load i32, ptr %50, align 4, !tbaa !57
  %52 = load i32, ptr %7, align 4, !tbaa !25
  %53 = add nsw i32 %52, 1
  %54 = mul nsw i32 %51, %53
  %55 = load i32, ptr %8, align 4, !tbaa !25
  %56 = sdiv i32 %54, %55
  store i32 %56, ptr %14, align 4, !tbaa !25
  call void @llvm.lifetime.start.p0(i64 8, ptr %15) #6
  %57 = load ptr, ptr %9, align 8, !tbaa !22
  %58 = getelementptr inbounds nuw %struct.ATiltContext, ptr %57, i32 0, i32 2
  %59 = load double, ptr %58, align 8, !tbaa !58
  store double %59, ptr %15, align 8, !tbaa !76
  call void @llvm.lifetime.start.p0(i64 4, ptr %16) #6
  %60 = load i32, ptr %13, align 4, !tbaa !25
  store i32 %60, ptr %16, align 4, !tbaa !25
  br label %61

61:                                               ; preds = %180, %4
  %62 = load i32, ptr %16, align 4, !tbaa !25
  %63 = load i32, ptr %14, align 4, !tbaa !25
  %64 = icmp slt i32 %62, %63
  br i1 %64, label %66, label %65

65:                                               ; preds = %61
  store i32 2, ptr %17, align 4
  call void @llvm.lifetime.end.p0(i64 4, ptr %16) #6
  br label %183

66:                                               ; preds = %61
  call void @llvm.lifetime.start.p0(i64 8, ptr %18) #6
  %67 = load ptr, ptr %12, align 8, !tbaa !28
  %68 = getelementptr inbounds nuw %struct.AVFrame, ptr %67, i32 0, i32 2
  %69 = load ptr, ptr %68, align 8, !tbaa !61
  %70 = load i32, ptr %16, align 4, !tbaa !25
  %71 = sext i32 %70 to i64
  %72 = getelementptr inbounds ptr, ptr %69, i64 %71
  %73 = load ptr, ptr %72, align 8, !tbaa !24
  store ptr %73, ptr %18, align 8, !tbaa !77
  call void @llvm.lifetime.start.p0(i64 8, ptr %19) #6
  %74 = load ptr, ptr %11, align 8, !tbaa !28
  %75 = getelementptr inbounds nuw %struct.AVFrame, ptr %74, i32 0, i32 2
  %76 = load ptr, ptr %75, align 8, !tbaa !61
  %77 = load i32, ptr %16, align 4, !tbaa !25
  %78 = sext i32 %77 to i64
  %79 = getelementptr inbounds ptr, ptr %76, i64 %78
  %80 = load ptr, ptr %79, align 8, !tbaa !24
  store ptr %80, ptr %19, align 8, !tbaa !77
  call void @llvm.lifetime.start.p0(i64 4, ptr %20) #6
  store i32 0, ptr %20, align 4, !tbaa !25
  br label %81

81:                                               ; preds = %176, %66
  %82 = load i32, ptr %20, align 4, !tbaa !25
  %83 = load ptr, ptr %9, align 8, !tbaa !22
  %84 = getelementptr inbounds nuw %struct.ATiltContext, ptr %83, i32 0, i32 5
  %85 = load i32, ptr %84, align 8, !tbaa !64
  %86 = icmp slt i32 %82, %85
  br i1 %86, label %88, label %87

87:                                               ; preds = %81
  store i32 5, ptr %17, align 4
  call void @llvm.lifetime.end.p0(i64 4, ptr %20) #6
  br label %179

88:                                               ; preds = %81
  call void @llvm.lifetime.start.p0(i64 8, ptr %21) #6
  %89 = load ptr, ptr %9, align 8, !tbaa !22
  %90 = getelementptr inbounds nuw %struct.ATiltContext, ptr %89, i32 0, i32 6
  %91 = load i32, ptr %20, align 4, !tbaa !25
  %92 = sext i32 %91 to i64
  %93 = getelementptr inbounds [30 x %struct.Coeffs], ptr %90, i64 0, i64 %92
  store ptr %93, ptr %21, align 8, !tbaa !65
  call void @llvm.lifetime.start.p0(i64 8, ptr %22) #6
  %94 = load ptr, ptr %21, align 8, !tbaa !65
  %95 = getelementptr inbounds nuw %struct.Coeffs, ptr %94, i32 0, i32 0
  %96 = load double, ptr %95, align 8, !tbaa !67
  store double %96, ptr %22, align 8, !tbaa !76
  call void @llvm.lifetime.start.p0(i64 8, ptr %23) #6
  %97 = load ptr, ptr %21, align 8, !tbaa !65
  %98 = getelementptr inbounds nuw %struct.Coeffs, ptr %97, i32 0, i32 1
  %99 = load double, ptr %98, align 8, !tbaa !69
  store double %99, ptr %23, align 8, !tbaa !76
  call void @llvm.lifetime.start.p0(i64 8, ptr %24) #6
  %100 = load ptr, ptr %21, align 8, !tbaa !65
  %101 = getelementptr inbounds nuw %struct.Coeffs, ptr %100, i32 0, i32 2
  %102 = load double, ptr %101, align 8, !tbaa !70
  store double %102, ptr %24, align 8, !tbaa !76
  call void @llvm.lifetime.start.p0(i64 8, ptr %25) #6
  %103 = load ptr, ptr %21, align 8, !tbaa !65
  %104 = getelementptr inbounds nuw %struct.Coeffs, ptr %103, i32 0, i32 3
  %105 = load double, ptr %104, align 8, !tbaa !71
  store double %105, ptr %25, align 8, !tbaa !76
  call void @llvm.lifetime.start.p0(i64 8, ptr %26) #6
  %106 = load ptr, ptr %9, align 8, !tbaa !22
  %107 = getelementptr inbounds nuw %struct.ATiltContext, ptr %106, i32 0, i32 7
  %108 = load ptr, ptr %107, align 8, !tbaa !53
  %109 = getelementptr inbounds nuw %struct.AVFrame, ptr %108, i32 0, i32 2
  %110 = load ptr, ptr %109, align 8, !tbaa !61
  %111 = load i32, ptr %16, align 4, !tbaa !25
  %112 = sext i32 %111 to i64
  %113 = getelementptr inbounds ptr, ptr %110, i64 %112
  %114 = load ptr, ptr %113, align 8, !tbaa !24
  %115 = load i32, ptr %20, align 4, !tbaa !25
  %116 = mul nsw i32 %115, 2
  %117 = sext i32 %116 to i64
  %118 = getelementptr inbounds double, ptr %114, i64 %117
  store ptr %118, ptr %26, align 8, !tbaa !77
  call void @llvm.lifetime.start.p0(i64 4, ptr %27) #6
  store i32 0, ptr %27, align 4, !tbaa !25
  br label %119

119:                                              ; preds = %172, %88
  %120 = load i32, ptr %27, align 4, !tbaa !25
  %121 = load ptr, ptr %12, align 8, !tbaa !28
  %122 = getelementptr inbounds nuw %struct.AVFrame, ptr %121, i32 0, i32 5
  %123 = load i32, ptr %122, align 8, !tbaa !39
  %124 = icmp slt i32 %120, %123
  br i1 %124, label %126, label %125

125:                                              ; preds = %119
  store i32 8, ptr %17, align 4
  call void @llvm.lifetime.end.p0(i64 4, ptr %27) #6
  br label %175

126:                                              ; preds = %119
  call void @llvm.lifetime.start.p0(i64 8, ptr %28) #6
  %127 = load i32, ptr %20, align 4, !tbaa !25
  %128 = icmp ne i32 %127, 0
  br i1 %128, label %129, label %135

129:                                              ; preds = %126
  %130 = load ptr, ptr %19, align 8, !tbaa !77
  %131 = load i32, ptr %27, align 4, !tbaa !25
  %132 = sext i32 %131 to i64
  %133 = getelementptr inbounds double, ptr %130, i64 %132
  %134 = load double, ptr %133, align 8, !tbaa !76
  br label %143

135:                                              ; preds = %126
  %136 = load ptr, ptr %18, align 8, !tbaa !77
  %137 = load i32, ptr %27, align 4, !tbaa !25
  %138 = sext i32 %137 to i64
  %139 = getelementptr inbounds double, ptr %136, i64 %138
  %140 = load double, ptr %139, align 8, !tbaa !76
  %141 = load double, ptr %15, align 8, !tbaa !76
  %142 = fmul nsz double %140, %141
  br label %143

143:                                              ; preds = %135, %129
  %144 = phi nsz double [ %134, %129 ], [ %142, %135 ]
  store double %144, ptr %28, align 8, !tbaa !76
  call void @llvm.lifetime.start.p0(i64 8, ptr %29) #6
  %145 = load double, ptr %28, align 8, !tbaa !76
  %146 = load double, ptr %24, align 8, !tbaa !76
  %147 = load ptr, ptr %26, align 8, !tbaa !77
  %148 = getelementptr inbounds double, ptr %147, i64 0
  %149 = load double, ptr %148, align 8, !tbaa !76
  %150 = load double, ptr %25, align 8, !tbaa !76
  %151 = fmul nsz double %149, %150
  %152 = call nsz double @llvm.fmuladd.f64(double %145, double %146, double %151)
  %153 = load ptr, ptr %26, align 8, !tbaa !77
  %154 = getelementptr inbounds double, ptr %153, i64 1
  %155 = load double, ptr %154, align 8, !tbaa !76
  %156 = load double, ptr %23, align 8, !tbaa !76
  %157 = fneg nsz double %155
  %158 = call nsz double @llvm.fmuladd.f64(double %157, double %156, double %152)
  store double %158, ptr %29, align 8, !tbaa !76
  %159 = load double, ptr %28, align 8, !tbaa !76
  %160 = load ptr, ptr %26, align 8, !tbaa !77
  %161 = getelementptr inbounds double, ptr %160, i64 0
  store double %159, ptr %161, align 8, !tbaa !76
  %162 = load double, ptr %29, align 8, !tbaa !76
  %163 = load ptr, ptr %26, align 8, !tbaa !77
  %164 = getelementptr inbounds double, ptr %163, i64 1
  store double %162, ptr %164, align 8, !tbaa !76
  %165 = load double, ptr %29, align 8, !tbaa !76
  %166 = load double, ptr %22, align 8, !tbaa !76
  %167 = fmul nsz double %165, %166
  %168 = load ptr, ptr %19, align 8, !tbaa !77
  %169 = load i32, ptr %27, align 4, !tbaa !25
  %170 = sext i32 %169 to i64
  %171 = getelementptr inbounds double, ptr %168, i64 %170
  store double %167, ptr %171, align 8, !tbaa !76
  call void @llvm.lifetime.end.p0(i64 8, ptr %29) #6
  call void @llvm.lifetime.end.p0(i64 8, ptr %28) #6
  br label %172

172:                                              ; preds = %143
  %173 = load i32, ptr %27, align 4, !tbaa !25
  %174 = add nsw i32 %173, 1
  store i32 %174, ptr %27, align 4, !tbaa !25
  br label %119, !llvm.loop !78

175:                                              ; preds = %125
  call void @llvm.lifetime.end.p0(i64 8, ptr %26) #6
  call void @llvm.lifetime.end.p0(i64 8, ptr %25) #6
  call void @llvm.lifetime.end.p0(i64 8, ptr %24) #6
  call void @llvm.lifetime.end.p0(i64 8, ptr %23) #6
  call void @llvm.lifetime.end.p0(i64 8, ptr %22) #6
  call void @llvm.lifetime.end.p0(i64 8, ptr %21) #6
  br label %176

176:                                              ; preds = %175
  %177 = load i32, ptr %20, align 4, !tbaa !25
  %178 = add nsw i32 %177, 1
  store i32 %178, ptr %20, align 4, !tbaa !25
  br label %81, !llvm.loop !79

179:                                              ; preds = %87
  call void @llvm.lifetime.end.p0(i64 8, ptr %19) #6
  call void @llvm.lifetime.end.p0(i64 8, ptr %18) #6
  br label %180

180:                                              ; preds = %179
  %181 = load i32, ptr %16, align 4, !tbaa !25
  %182 = add nsw i32 %181, 1
  store i32 %182, ptr %16, align 4, !tbaa !25
  br label %61, !llvm.loop !80

183:                                              ; preds = %65
  store i32 1, ptr %17, align 4
  call void @llvm.lifetime.end.p0(i64 8, ptr %15) #6
  call void @llvm.lifetime.end.p0(i64 4, ptr %14) #6
  call void @llvm.lifetime.end.p0(i64 4, ptr %13) #6
  call void @llvm.lifetime.end.p0(i64 8, ptr %12) #6
  call void @llvm.lifetime.end.p0(i64 8, ptr %11) #6
  call void @llvm.lifetime.end.p0(i64 8, ptr %10) #6
  call void @llvm.lifetime.end.p0(i64 8, ptr %9) #6
  ret i32 0
}