; Function Attrs: nofree norecurse nosync nounwind memory(readwrite, inaccessiblemem: none) uwtable
define internal noundef i32 @filter_channels_dblp(ptr noundef readonly captures(none) %0, ptr noundef readonly captures(none) %1, i32 noundef %2, i32 noundef %3) #5 {
  %5 = getelementptr inbounds nuw i8, ptr %0, i64 72
  %6 = load ptr, ptr %5, align 8, !tbaa !4
  %7 = load ptr, ptr %1, align 8, !tbaa !55
  %8 = getelementptr inbounds nuw i8, ptr %7, i64 388
  %9 = load i32, ptr %8, align 4, !tbaa !62
  %10 = mul nsw i32 %9, %2
  %11 = sdiv i32 %10, %3
  %12 = add nsw i32 %2, 1
  %13 = mul nsw i32 %9, %12
  %14 = sdiv i32 %13, %3
  %15 = getelementptr inbounds nuw i8, ptr %6, i64 16
  %16 = load double, ptr %15, align 8, !tbaa !63
  %17 = icmp slt i32 %11, %14
  br i1 %17, label %.lr.ph, label %._crit_edge

.lr.ph:                                           ; preds = %4
  %18 = getelementptr inbounds nuw i8, ptr %1, i64 8
  %19 = load ptr, ptr %18, align 8, !tbaa !57
  %20 = getelementptr inbounds nuw i8, ptr %7, i64 96
  %21 = load ptr, ptr %20, align 8, !tbaa !64
  %22 = getelementptr inbounds nuw i8, ptr %19, i64 96
  %23 = load ptr, ptr %22, align 8, !tbaa !64
  %24 = getelementptr inbounds nuw i8, ptr %6, i64 40
  %25 = load i32, ptr %24, align 8, !tbaa !32
  %26 = icmp sgt i32 %25, 0
  %27 = getelementptr inbounds nuw i8, ptr %6, i64 48
  br i1 %26, label %.lr.ph.split.us, label %._crit_edge

.lr.ph.split.us:                                  ; preds = %.lr.ph
  %28 = getelementptr inbounds nuw i8, ptr %7, i64 112
  %29 = getelementptr inbounds nuw i8, ptr %6, i64 1008
  %30 = load ptr, ptr %29, align 8, !tbaa !61
  %31 = getelementptr inbounds nuw i8, ptr %30, i64 96
  %32 = load ptr, ptr %31, align 8, !tbaa !64
  %33 = load i32, ptr %28, align 8, !tbaa !49
  %34 = icmp sgt i32 %33, 0
  br i1 %34, label %.lr.ph58.us.us.preheader, label %._crit_edge

.lr.ph58.us.us.preheader:                         ; preds = %.lr.ph.split.us
  %35 = sext i32 %11 to i64
  %wide.trip.count84 = sext i32 %14 to i64
  %wide.trip.count79 = zext nneg i32 %25 to i64
  %wide.trip.count = zext nneg i32 %33 to i64
  %wide.trip.count74 = zext nneg i32 %33 to i64
  br label %.lr.ph58.us.us

.lr.ph58.us.us:                                   ; preds = %.lr.ph58.us.us.preheader, %._crit_edge59.split.us.us.us
  %indvars.iv81 = phi i64 [ %35, %.lr.ph58.us.us.preheader ], [ %indvars.iv.next82, %._crit_edge59.split.us.us.us ]
  %36 = getelementptr inbounds ptr, ptr %21, i64 %indvars.iv81
  %37 = load ptr, ptr %36, align 8, !tbaa !65
  %38 = getelementptr inbounds ptr, ptr %23, i64 %indvars.iv81
  %39 = load ptr, ptr %38, align 8, !tbaa !65
  %40 = getelementptr inbounds ptr, ptr %32, i64 %indvars.iv81
  %41 = load ptr, ptr %40, align 8, !tbaa !65
  br label %.lr.ph.us.us.us

.lr.ph.us.us.us:                                  ; preds = %._crit_edge.us.us.us, %.lr.ph58.us.us
  %indvars.iv76 = phi i64 [ %indvars.iv.next77, %._crit_edge.us.us.us ], [ 0, %.lr.ph58.us.us ]
  %42 = getelementptr inbounds nuw [30 x %struct.Coeffs], ptr %27, i64 0, i64 %indvars.iv76
  %43 = load double, ptr %42, align 8, !tbaa !43
  %44 = getelementptr inbounds nuw i8, ptr %42, i64 8
  %45 = load double, ptr %44, align 8, !tbaa !42
  %46 = getelementptr inbounds nuw i8, ptr %42, i64 16
  %47 = load double, ptr %46, align 8, !tbaa !41
  %48 = getelementptr inbounds nuw i8, ptr %42, i64 24
  %49 = load double, ptr %48, align 8, !tbaa !39
  %.idx = shl nuw nsw i64 %indvars.iv76, 4
  %50 = getelementptr inbounds nuw i8, ptr %41, i64 %.idx
  %.not.us.us.us = icmp eq i64 %indvars.iv76, 0
  %51 = getelementptr inbounds nuw i8, ptr %50, i64 8
  br i1 %.not.us.us.us, label %.lr.ph.split.us.us.us.us, label %.lr.ph.split.us62.us.us

.lr.ph.split.us62.us.us:                          ; preds = %.lr.ph.us.us.us, %.lr.ph.split.us62.us.us
  %indvars.iv = phi i64 [ %indvars.iv.next, %.lr.ph.split.us62.us.us ], [ 0, %.lr.ph.us.us.us ]
  %52 = getelementptr inbounds nuw double, ptr %39, i64 %indvars.iv
  %53 = load double, ptr %52, align 8, !tbaa !71
  %54 = load double, ptr %50, align 8, !tbaa !71
  %55 = fmul nsz double %49, %54
  %56 = tail call nsz double @llvm.fmuladd.f64(double %53, double %47, double %55)
  %57 = load double, ptr %51, align 8, !tbaa !71
  %58 = fneg nsz double %57
  %59 = tail call nsz double @llvm.fmuladd.f64(double %58, double %45, double %56)
  store double %53, ptr %50, align 8, !tbaa !71
  store double %59, ptr %51, align 8, !tbaa !71
  %60 = fmul nsz double %43, %59
  store double %60, ptr %52, align 8, !tbaa !71
  %indvars.iv.next = add nuw nsw i64 %indvars.iv, 1
  %exitcond.not = icmp eq i64 %indvars.iv.next, %wide.trip.count
  br i1 %exitcond.not, label %._crit_edge.us.us.us, label %.lr.ph.split.us62.us.us, !llvm.loop !72

._crit_edge.us.us.us:                             ; preds = %.lr.ph.split.us62.us.us, %.lr.ph.split.us.us.us.us
  %indvars.iv.next77 = add nuw nsw i64 %indvars.iv76, 1
  %exitcond80.not = icmp eq i64 %indvars.iv.next77, %wide.trip.count79
  br i1 %exitcond80.not, label %._crit_edge59.split.us.us.us, label %.lr.ph.us.us.us, !llvm.loop !73

.lr.ph.split.us.us.us.us:                         ; preds = %.lr.ph.us.us.us, %.lr.ph.split.us.us.us.us
  %indvars.iv71 = phi i64 [ %indvars.iv.next72, %.lr.ph.split.us.us.us.us ], [ 0, %.lr.ph.us.us.us ]
  %61 = getelementptr inbounds nuw double, ptr %37, i64 %indvars.iv71
  %62 = load double, ptr %61, align 8, !tbaa !71
  %63 = fmul nsz double %16, %62
  %64 = load double, ptr %50, align 8, !tbaa !71
  %65 = fmul nsz double %49, %64
  %66 = tail call nsz double @llvm.fmuladd.f64(double %63, double %47, double %65)
  %67 = load double, ptr %51, align 8, !tbaa !71
  %68 = fneg nsz double %67
  %69 = tail call nsz double @llvm.fmuladd.f64(double %68, double %45, double %66)
  store double %63, ptr %50, align 8, !tbaa !71
  store double %69, ptr %51, align 8, !tbaa !71
  %70 = fmul nsz double %43, %69
  %71 = getelementptr inbounds nuw double, ptr %39, i64 %indvars.iv71
  store double %70, ptr %71, align 8, !tbaa !71
  %indvars.iv.next72 = add nuw nsw i64 %indvars.iv71, 1
  %exitcond75.not = icmp eq i64 %indvars.iv.next72, %wide.trip.count74
  br i1 %exitcond75.not, label %._crit_edge.us.us.us, label %.lr.ph.split.us.us.us.us, !llvm.loop !72

._crit_edge59.split.us.us.us:                     ; preds = %._crit_edge.us.us.us
  %indvars.iv.next82 = add nsw i64 %indvars.iv81, 1
  %exitcond85.not = icmp eq i64 %indvars.iv.next82, %wide.trip.count84
  br i1 %exitcond85.not, label %._crit_edge, label %.lr.ph58.us.us, !llvm.loop !74

._crit_edge:                                      ; preds = %._crit_edge59.split.us.us.us, %.lr.ph.split.us, %.lr.ph, %4
  ret i32 0
}